target datalayout = "e-m:e-p270:32:32-p271:32:32-p272:64:64-i64:64-i128:128-f80:128-n8:16:32:64-S128"
target triple = "x86_64-pc-linux-gnu"

@.str = private unnamed_addr constant [16 x i8] c"cgroup_common.c\00", align 1
@.str.1 = private unnamed_addr constant [3 x i8] c"%u\00", align 1
@.str.3 = private unnamed_addr constant [40 x i8] c"%s: unable to open '%s' for writing: %m\00", align 1
@__func__.common_file_write_uints = private unnamed_addr constant [24 x i8] c"common_file_write_uints\00", align 1
@.str.4 = private unnamed_addr constant [40 x i8] c"%s: unable to build %u string value: %m\00", align 1
@.str.5 = private unnamed_addr constant [4 x i8] c"%lu\00", align 1
@.str.6 = private unnamed_addr constant [41 x i8] c"%s: unable to build %lu string value: %m\00", align 1
@.str.7 = private unnamed_addr constant [46 x i8] c"%s: unexpected base %d. Unable to write to %s\00", align 1
@.str.8 = private unnamed_addr constant [53 x i8] c"%s: %s: %s:%d: %s: safe_write (%zu of %d) failed: %m\00", align 1
@plugin_type = external constant [0 x i8], align 1
@.str.9 = private unnamed_addr constant [56 x i8] c"%s: %s: %s:%d: %s: safe_write (%zu of %d) partial write\00", align 1
@.str.10 = private unnamed_addr constant [40 x i8] c"%s: write value '%s' to '%s' failed: %m\00", align 1

; Function Attrs: nounwind uwtable
define dso_local i32 @common_file_write_uints(ptr noundef %0, ptr noundef %1, i32 noundef %2, i32 noundef %3) #0 {
  %5 = alloca i32, align 4
  %6 = alloca ptr, align 8
  %7 = alloca ptr, align 8
  %8 = alloca i32, align 4
  %9 = alloca i32, align 4
  %10 = alloca i32, align 4
  %11 = alloca i32, align 4
  %12 = alloca [256 x i8], align 16
  %13 = alloca ptr, align 8
  %14 = alloca ptr, align 8
  %15 = alloca i32, align 4
  %16 = alloca i32, align 4
  %17 = alloca i32, align 4
  %18 = alloca i64, align 8
  %19 = alloca i64, align 8
  %20 = alloca ptr, align 8
  %21 = alloca i32, align 4
  store ptr %0, ptr %6, align 8
  store ptr %1, ptr %7, align 8
  store i32 %2, ptr %8, align 4
  store i32 %3, ptr %9, align 4
  call void @llvm.lifetime.start.p0(i64 4, ptr %10) #6
  call void @llvm.lifetime.start.p0(i64 4, ptr %11) #6
  call void @llvm.lifetime.start.p0(i64 256, ptr %12) #6
  call void @llvm.lifetime.start.p0(i64 8, ptr %13) #6
  store ptr null, ptr %13, align 8
  call void @llvm.lifetime.start.p0(i64 8, ptr %14) #6
  store ptr null, ptr %14, align 8
  %22 = load ptr, ptr %6, align 8
  %23 = call i32 (ptr, i32, ...) @open(ptr noundef %22, i32 noundef 1, i32 noundef 448)
  store i32 %23, ptr %11, align 4
  %24 = icmp slt i32 %23, 0
  br i1 %24, label %25, label %28

25:                                               ; preds = %4
  %26 = load ptr, ptr %6, align 8
  %27 = call i32 (ptr, ...) @error(ptr noundef @.str.3, ptr noundef @__func__.common_file_write_uints, ptr noundef %26)
  store i32 -1, ptr %5, align 4
  store i32 1, ptr %15, align 4
  br label %190

28:                                               ; preds = %4
  %29 = load i32, ptr %9, align 4
  %30 = icmp eq i32 %29, 32
  br i1 %30, label %31, label %33

31:                                               ; preds = %28
  %32 = load ptr, ptr %7, align 8
  store ptr %32, ptr %13, align 8
  br label %39

33:                                               ; preds = %28
  %34 = load i32, ptr %9, align 4
  %35 = icmp eq i32 %34, 64
  br i1 %35, label %36, label %38

36:                                               ; preds = %33
  %37 = load ptr, ptr %7, align 8
  store ptr %37, ptr %14, align 8
  br label %38

38:                                               ; preds = %36, %33
  br label %39

39:                                               ; preds = %38, %31
  call void @llvm.lifetime.start.p0(i64 4, ptr %16) #6
  store i32 0, ptr %16, align 4
  br label %40

40:                                               ; preds = %173, %39
  %41 = load i32, ptr %16, align 4
  %42 = load i32, ptr %8, align 4
  %43 = icmp slt i32 %41, %42
  br i1 %43, label %45, label %44

44:                                               ; preds = %40
  store i32 2, ptr %15, align 4
  br label %176

45:                                               ; preds = %40
  %46 = load i32, ptr %9, align 4
  %47 = icmp eq i32 %46, 32
  br i1 %47, label %48, label %67

48:                                               ; preds = %45
  call void @llvm.lifetime.start.p0(i64 4, ptr %17) #6
  %49 = load ptr, ptr %13, align 8
  %50 = load i32, ptr %16, align 4
  %51 = sext i32 %50 to i64
  %52 = getelementptr inbounds i32, ptr %49, i64 %51
  %53 = load i32, ptr %52, align 4
  store i32 %53, ptr %17, align 4
  %54 = getelementptr inbounds [256 x i8], ptr %12, i64 0, i64 0
  %55 = load i32, ptr %17, align 4
  %56 = call i32 (ptr, i64, ptr, ...) @snprintf(ptr noundef %54, i64 noundef 256, ptr noundef @.str.1, i32 noundef %55) #6
  %57 = icmp slt i32 %56, 0
  br i1 %57, label %58, label %63

58:                                               ; preds = %48
  %59 = load i32, ptr %17, align 4
  %60 = call i32 (ptr, ...) @error(ptr noundef @.str.4, ptr noundef @__func__.common_file_write_uints, i32 noundef %59)
  %61 = load i32, ptr %11, align 4
  %62 = call i32 @close(i32 noundef %61)
  store i32 -1, ptr %5, align 4
  store i32 1, ptr %15, align 4
  br label %64

63:                                               ; preds = %48
  store i32 0, ptr %15, align 4
  br label %64

64:                                               ; preds = %63, %58
  call void @llvm.lifetime.end.p0(i64 4, ptr %17) #6
  %65 = load i32, ptr %15, align 4
  switch i32 %65, label %176 [
    i32 0, label %66
  ]

66:                                               ; preds = %64
  br label %96

67:                                               ; preds = %45
  %68 = load i32, ptr %9, align 4
  %69 = icmp eq i32 %68, 64
  br i1 %69, label %70, label %89

70:                                               ; preds = %67
  call void @llvm.lifetime.start.p0(i64 8, ptr %18) #6
  %71 = load ptr, ptr %14, align 8
  %72 = load i32, ptr %16, align 4
  %73 = sext i32 %72 to i64
  %74 = getelementptr inbounds i64, ptr %71, i64 %73
  %75 = load i64, ptr %74, align 8
  store i64 %75, ptr %18, align 8
  %76 = getelementptr inbounds [256 x i8], ptr %12, i64 0, i64 0
  %77 = load i64, ptr %18, align 8
  %78 = call i32 (ptr, i64, ptr, ...) @snprintf(ptr noundef %76, i64 noundef 256, ptr noundef @.str.5, i64 noundef %77) #6
  %79 = icmp slt i32 %78, 0
  br i1 %79, label %80, label %85

80:                                               ; preds = %70
  %81 = load i64, ptr %18, align 8
  %82 = call i32 (ptr, ...) @error(ptr noundef @.str.6, ptr noundef @__func__.common_file_write_uints, i64 noundef %81)
  %83 = load i32, ptr %11, align 4
  %84 = call i32 @close(i32 noundef %83)
  store i32 -1, ptr %5, align 4
  store i32 1, ptr %15, align 4
  br label %86

85:                                               ; preds = %70
  store i32 0, ptr %15, align 4
  br label %86

86:                                               ; preds = %85, %80
  call void @llvm.lifetime.end.p0(i64 8, ptr %18) #6
  %87 = load i32, ptr %15, align 4
  switch i32 %87, label %176 [
    i32 0, label %88
  ]

88:                                               ; preds = %86
  br label %95

89:                                               ; preds = %67
  %90 = load i32, ptr %9, align 4
  %91 = load ptr, ptr %6, align 8
  %92 = call i32 (ptr, ...) @error(ptr noundef @.str.7, ptr noundef @__func__.common_file_write_uints, i32 noundef %90, ptr noundef %91)
  %93 = load i32, ptr %11, align 4
  %94 = call i32 @close(i32 noundef %93)
  store i32 -1, ptr %5, align 4
  store i32 1, ptr %15, align 4
  br label %176

95:                                               ; preds = %88
  br label %96

96:                                               ; preds = %95, %66
  br label %97

97:                                               ; preds = %96
  call void @llvm.lifetime.start.p0(i64 8, ptr %19) #6
  %98 = getelementptr inbounds [256 x i8], ptr %12, i64 0, i64 0
  %99 = call i64 @strlen(ptr noundef %98) #8
  %100 = add i64 %99, 1
  store i64 %100, ptr %19, align 8
  call void @llvm.lifetime.start.p0(i64 8, ptr %20) #6
  %101 = getelementptr inbounds [256 x i8], ptr %12, i64 0, i64 0
  store ptr %101, ptr %20, align 8
  call void @llvm.lifetime.start.p0(i64 4, ptr %21) #6
  br label %102

102:                                              ; preds = %166, %121, %97
  %103 = load i64, ptr %19, align 8
  %104 = icmp ugt i64 %103, 0
  br i1 %104, label %105, label %167

105:                                              ; preds = %102
  %106 = load i32, ptr %11, align 4
  %107 = load ptr, ptr %20, align 8
  %108 = load i64, ptr %19, align 8
  %109 = call i64 @write(i32 noundef %106, ptr noundef %107, i64 noundef %108)
  %110 = trunc i64 %109 to i32
  store i32 %110, ptr %21, align 4
  %111 = load i32, ptr %21, align 4
  %112 = icmp slt i32 %111, 0
  br i1 %112, label %113, label %138

113:                                              ; preds = %105
  %114 = call ptr @__errno_location() #7
  %115 = load i32, ptr %114, align 4
  %116 = icmp eq i32 %115, 11
  br i1 %116, label %121, label %117

117:                                              ; preds = %113
  %118 = call ptr @__errno_location() #7
  %119 = load i32, ptr %118, align 4
  %120 = icmp eq i32 %119, 4
  br i1 %120, label %121, label %122

121:                                              ; preds = %117, %113
  br label %102, !llvm.loop !14

122:                                              ; preds = %117
  br label %123

123:                                              ; preds = %122
  br label %124

124:                                              ; preds = %123
  %125 = call i32 @get_log_level()
  %126 = icmp sge i32 %125, 5
  br i1 %126, label %127, label %133

127:                                              ; preds = %124
  %128 = load i64, ptr %19, align 8
  %129 = getelementptr inbounds [256 x i8], ptr %12, i64 0, i64 0
  %130 = call i64 @strlen(ptr noundef %129) #8
  %131 = trunc i64 %130 to i32
  %132 = add nsw i32 %131, 1
  call void (i32, ptr, ...) @log_var(i32 noundef 5, ptr noundef @.str.8, ptr noundef @plugin_type, ptr noundef @__func__.common_file_write_uints, ptr noundef @.str, i32 noundef 294, ptr noundef @__func__.common_file_write_uints, i64 noundef %128, i32 noundef %132)
  br label %133

133:                                              ; preds = %127, %124
  br label %134

134:                                              ; preds = %133
  br label %135

135:                                              ; preds = %134
  br label %136

136:                                              ; preds = %135
  br label %137

137:                                              ; preds = %136
  store i32 13, ptr %15, align 4
  br label %168

138:                                              ; preds = %105
  %139 = load i32, ptr %21, align 4
  %140 = load ptr, ptr %20, align 8
  %141 = sext i32 %139 to i64
  %142 = getelementptr inbounds i8, ptr %140, i64 %141
  store ptr %142, ptr %20, align 8
  %143 = load i32, ptr %21, align 4
  %144 = sext i32 %143 to i64
  %145 = load i64, ptr %19, align 8
  %146 = sub i64 %145, %144
  store i64 %146, ptr %19, align 8
  %147 = load i64, ptr %19, align 8
  %148 = icmp ugt i64 %147, 0
  br i1 %148, label %149, label %165

149:                                              ; preds = %138
  br label %150

150:                                              ; preds = %149
  br label %151

151:                                              ; preds = %150
  %152 = call i32 @get_log_level()
  %153 = icmp sge i32 %152, 7
  br i1 %153, label %154, label %160

154:                                              ; preds = %151
  %155 = load i64, ptr %19, align 8
  %156 = getelementptr inbounds [256 x i8], ptr %12, i64 0, i64 0
  %157 = call i64 @strlen(ptr noundef %156) #8
  %158 = trunc i64 %157 to i32
  %159 = add nsw i32 %158, 1
  call void (i32, ptr, ...) @log_var(i32 noundef 7, ptr noundef @.str.9, ptr noundef @plugin_type, ptr noundef @__func__.common_file_write_uints, ptr noundef @.str, i32 noundef 294, ptr noundef @__func__.common_file_write_uints, i64 noundef %155, i32 noundef %159)
  br label %160

160:                                              ; preds = %154, %151
  br label %161

161:                                              ; preds = %160
  br label %162

162:                                              ; preds = %161
  br label %163

163:                                              ; preds = %162
  br label %164

164:                                              ; preds = %163
  br label %165

165:                                              ; preds = %164, %138
  br label %166

166:                                              ; preds = %165
  br label %102, !llvm.loop !14

167:                                              ; preds = %102
  store i32 0, ptr %15, align 4
  br label %168

168:                                              ; preds = %137, %167
  call void @llvm.lifetime.end.p0(i64 4, ptr %21) #6
  call void @llvm.lifetime.end.p0(i64 8, ptr %20) #6
  call void @llvm.lifetime.end.p0(i64 8, ptr %19) #6
  %169 = load i32, ptr %15, align 4
  switch i32 %169, label %176 [
    i32 0, label %170
  ]

170:                                              ; preds = %168
  br label %171

171:                                              ; preds = %170
  br label %172

172:                                              ; preds = %171
  br label %173

173:                                              ; preds = %172
  %174 = load i32, ptr %16, align 4
  %175 = add nsw i32 %174, 1
  store i32 %175, ptr %16, align 4
  br label %40, !llvm.loop !15

176:                                              ; preds = %168, %89, %86, %64, %44
  call void @llvm.lifetime.end.p0(i64 4, ptr %16) #6
  %177 = load i32, ptr %15, align 4
  switch i32 %177, label %190 [
    i32 2, label %178
    i32 13, label %181
  ]

178:                                              ; preds = %176
  %179 = load i32, ptr %11, align 4
  %180 = call i32 @close(i32 noundef %179)
  store i32 0, ptr %5, align 4
  store i32 1, ptr %15, align 4
  br label %190

181:                                              ; preds = %176
  %182 = call ptr @__errno_location() #7
  %183 = load i32, ptr %182, align 4
  store i32 %183, ptr %10, align 4
  %184 = getelementptr inbounds [256 x i8], ptr %12, i64 0, i64 0
  %185 = load ptr, ptr %6, align 8
  %186 = call i32 (ptr, ...) @error(ptr noundef @.str.10, ptr noundef @__func__.common_file_write_uints, ptr noundef %184, ptr noundef %185)
  %187 = load i32, ptr %11, align 4
  %188 = call i32 @close(i32 noundef %187)
  %189 = load i32, ptr %10, align 4
  store i32 %189, ptr %5, align 4
  store i32 1, ptr %15, align 4
  br label %190

190:                                              ; preds = %181, %178, %176, %25
  call void @llvm.lifetime.end.p0(i64 8, ptr %14) #6
  call void @llvm.lifetime.end.p0(i64 8, ptr %13) #6
  call void @llvm.lifetime.end.p0(i64 256, ptr %12) #6
  call void @llvm.lifetime.end.p0(i64 4, ptr %11) #6
  call void @llvm.lifetime.end.p0(i64 4, ptr %10) #6
  %191 = load i32, ptr %5, align 4
  ret i32 %191
}