; Function Attrs: nounwind uwtable
define dso_local i32 @common_file_write_uints(ptr noundef %0, ptr noundef readonly captures(none) %1, i32 noundef %2, i32 noundef %3) local_unnamed_addr #0 {
  %5 = alloca [256 x i8], align 16
  call void @llvm.lifetime.start.p0(i64 256, ptr nonnull %5) #8
  %6 = tail call i32 (ptr, i32, ...) @open(ptr noundef %0, i32 noundef 1, i32 noundef 448) #8
  %7 = icmp slt i32 %6, 0
  br i1 %7, label %8, label %10

8:                                                ; preds = %4
  %9 = tail call i32 (ptr, ...) @error(ptr noundef nonnull @.str.3, ptr noundef nonnull @__func__.common_file_write_uints, ptr noundef %0) #8
  br label %.thread67

10:                                               ; preds = %4
  %11 = icmp sgt i32 %2, 0
  br i1 %11, label %.lr.ph90.preheader, label %._crit_edge

.lr.ph90.preheader:                               ; preds = %10
  %wide.trip.count = zext nneg i32 %2 to i64
  br label %.lr.ph90

.lr.ph90:                                         ; preds = %.lr.ph90.preheader, %._crit_edge.split.us
  %indvars.iv = phi i64 [ 0, %.lr.ph90.preheader ], [ %indvars.iv.next, %._crit_edge.split.us ]
  switch i32 %3, label %28 [
    i32 32, label %12
    i32 64, label %20
  ]

12:                                               ; preds = %.lr.ph90
  %13 = getelementptr inbounds nuw i32, ptr %1, i64 %indvars.iv
  %14 = load i32, ptr %13, align 4
  %15 = call i32 (ptr, i64, ptr, ...) @snprintf(ptr noundef nonnull dereferenceable(1) %5, i64 noundef 256, ptr noundef nonnull @.str.1, i32 noundef %14) #8
  %16 = icmp sgt i32 %15, -1
  br i1 %16, label %.critedge, label %17

17:                                               ; preds = %12
  %18 = tail call i32 (ptr, ...) @error(ptr noundef nonnull @.str.4, ptr noundef nonnull @__func__.common_file_write_uints, i32 noundef %14) #8
  %19 = tail call i32 @close(i32 noundef %6) #8
  br label %.thread67

20:                                               ; preds = %.lr.ph90
  %21 = getelementptr inbounds nuw i64, ptr %1, i64 %indvars.iv
  %22 = load i64, ptr %21, align 8
  %23 = call i32 (ptr, i64, ptr, ...) @snprintf(ptr noundef nonnull dereferenceable(1) %5, i64 noundef 256, ptr noundef nonnull @.str.5, i64 noundef %22) #8
  %24 = icmp sgt i32 %23, -1
  br i1 %24, label %.critedge, label %25

25:                                               ; preds = %20
  %26 = tail call i32 (ptr, ...) @error(ptr noundef nonnull @.str.6, ptr noundef nonnull @__func__.common_file_write_uints, i64 noundef %22) #8
  %27 = tail call i32 @close(i32 noundef %6) #8
  br label %.thread67

28:                                               ; preds = %.lr.ph90
  %29 = tail call i32 (ptr, ...) @error(ptr noundef nonnull @.str.7, ptr noundef nonnull @__func__.common_file_write_uints, i32 noundef %3, ptr noundef %0) #8
  %30 = tail call i32 @close(i32 noundef %6) #8
  br label %.thread67

.critedge:                                        ; preds = %20, %12
  %31 = call i64 @strlen(ptr noundef nonnull dereferenceable(1) %5) #10
  %32 = add i64 %31, 1
  %.not83 = icmp eq i64 %32, 0
  br i1 %.not83, label %._crit_edge.split.us, label %.lr.ph.split

.lr.ph.split:                                     ; preds = %.critedge, %.lr.ph.split.backedge
  %.046.ph86 = phi ptr [ %48, %.lr.ph.split.backedge ], [ %5, %.critedge ]
  %.047.ph84 = phi i64 [ %49, %.lr.ph.split.backedge ], [ %32, %.critedge ]
  %33 = call i64 @write(i32 noundef %6, ptr noundef %.046.ph86, i64 noundef %.047.ph84) #8
  %34 = and i64 %33, 2147483648
  %.not6181 = icmp eq i64 %34, 0
  br i1 %.not6181, label %.split.us, label %.lr.ph82

.lr.ph82:                                         ; preds = %.lr.ph.split
  %35 = tail call ptr @__errno_location() #9
  br label %36

36:                                               ; preds = %.lr.ph82, %38
  %37 = load i32, ptr %35, align 4
  switch i32 %37, label %.split76.us [
    i32 11, label %38
    i32 4, label %38
  ]

38:                                               ; preds = %36, %36
  %39 = call i64 @write(i32 noundef %6, ptr noundef %.046.ph86, i64 noundef %.047.ph84) #8
  %40 = and i64 %39, 2147483648
  %.not61 = icmp eq i64 %40, 0
  br i1 %.not61, label %.split.us, label %36

.split76.us:                                      ; preds = %36
  %41 = tail call i32 @get_log_level() #8
  %42 = icmp sgt i32 %41, 4
  br i1 %42, label %43, label %58

43:                                               ; preds = %.split76.us
  %44 = call i64 @strlen(ptr noundef nonnull dereferenceable(1) %5) #10
  %45 = trunc i64 %44 to i32
  %46 = add nsw i32 %45, 1
  tail call void (i32, ptr, ...) @log_var(i32 noundef 5, ptr noundef nonnull @.str.8, ptr noundef nonnull @plugin_type, ptr noundef nonnull @__func__.common_file_write_uints, ptr noundef nonnull @.str, i32 noundef 294, ptr noundef nonnull @__func__.common_file_write_uints, i64 noundef %.047.ph84, i32 noundef %46) #8
  br label %58

.split.us:                                        ; preds = %38, %.lr.ph.split
  %.us-phi = phi i64 [ %33, %.lr.ph.split ], [ %39, %38 ]
  %47 = and i64 %.us-phi, 2147483647
  %48 = getelementptr inbounds nuw i8, ptr %.046.ph86, i64 %47
  %49 = sub i64 %.047.ph84, %47
  %.not62 = icmp eq i64 %49, 0
  br i1 %.not62, label %._crit_edge.split.us, label %50

50:                                               ; preds = %.split.us
  %51 = tail call i32 @get_log_level() #8
  %52 = icmp sgt i32 %51, 6
  br i1 %52, label %53, label %.lr.ph.split.backedge

53:                                               ; preds = %50
  %54 = call i64 @strlen(ptr noundef nonnull dereferenceable(1) %5) #10
  %55 = trunc i64 %54 to i32
  %56 = add nsw i32 %55, 1
  tail call void (i32, ptr, ...) @log_var(i32 noundef 7, ptr noundef nonnull @.str.9, ptr noundef nonnull @plugin_type, ptr noundef nonnull @__func__.common_file_write_uints, ptr noundef nonnull @.str, i32 noundef 294, ptr noundef nonnull @__func__.common_file_write_uints, i64 noundef %49, i32 noundef %56) #8
  br label %.lr.ph.split.backedge

.lr.ph.split.backedge:                            ; preds = %53, %50
  br label %.lr.ph.split, !llvm.loop !14

._crit_edge.split.us:                             ; preds = %.split.us, %.critedge
  %indvars.iv.next = add nuw nsw i64 %indvars.iv, 1
  %exitcond.not = icmp eq i64 %indvars.iv.next, %wide.trip.count
  br i1 %exitcond.not, label %._crit_edge, label %.lr.ph90, !llvm.loop !15

._crit_edge:                                      ; preds = %._crit_edge.split.us, %10
  %57 = tail call i32 @close(i32 noundef %6) #8
  br label %.thread67

58:                                               ; preds = %43, %.split76.us
  %59 = tail call ptr @__errno_location() #9
  %60 = load i32, ptr %59, align 4
  %61 = call i32 (ptr, ...) @error(ptr noundef nonnull @.str.10, ptr noundef nonnull @__func__.common_file_write_uints, ptr noundef nonnull %5, ptr noundef %0) #8
  %62 = call i32 @close(i32 noundef %6) #8
  br label %.thread67

.thread67:                                        ; preds = %28, %25, %17, %58, %._crit_edge, %8
  %.0 = phi i32 [ -1, %8 ], [ %60, %58 ], [ 0, %._crit_edge ], [ -1, %17 ], [ -1, %25 ], [ -1, %28 ]
  call void @llvm.lifetime.end.p0(i64 256, ptr nonnull %5) #8
  ret i32 %.0
}